target datalayout = "e-m:e-p270:32:32-p271:32:32-p272:64:64-i64:64-i128:128-f80:128-n8:16:32:64-S128"
target triple = "x86_64-pc-linux-gnu"

%struct.Map_NodeStruct_t_ = type { ptr, ptr, i32, i32, i32, i32, [3 x i32], [3 x float], float, ptr, ptr, ptr, ptr, [2 x %struct.Map_TimeStruct_t_], [2 x %struct.Map_TimeStruct_t_], [2 x ptr], ptr, ptr, ptr }
%struct.Map_TimeStruct_t_ = type { float, float, float }
%struct.Map_CutStruct_t_ = type { ptr, ptr, ptr, [6 x ptr], i32, i8, i8, i8, i8, [2 x %struct.Map_MatchStruct_t_] }
%struct.Map_MatchStruct_t_ = type { ptr, i32, i32, ptr, %struct.Map_TimeStruct_t_, float }
%struct.Map_SuperStruct_t_ = type { i32, i32, [4 x i8], i32, [6 x ptr], ptr, [2 x i32], [6 x %struct.Map_TimeStruct_t_], [6 x %struct.Map_TimeStruct_t_], %struct.Map_TimeStruct_t_, float, ptr, ptr }

; Function Attrs: nounwind uwtable
define float @Map_NodeReadRefPhaseEst(ptr noundef %0, i32 noundef %1) #0 {
  %3 = alloca float, align 4
  %4 = alloca ptr, align 8
  %5 = alloca i32, align 4
  store ptr %0, ptr %4, align 8, !tbaa !3
  store i32 %1, ptr %5, align 4, !tbaa !8
  %6 = load ptr, ptr %4, align 8, !tbaa !3
  %7 = getelementptr inbounds nuw %struct.Map_NodeStruct_t_, ptr %6, i32 0, i32 15
  %8 = getelementptr inbounds [2 x ptr], ptr %7, i64 0, i64 0
  %9 = load ptr, ptr %8, align 8, !tbaa !10
  %10 = icmp ne ptr %9, null
  br i1 %10, label %11, label %24

11:                                               ; preds = %2
  %12 = load ptr, ptr %4, align 8, !tbaa !3
  %13 = getelementptr inbounds nuw %struct.Map_NodeStruct_t_, ptr %12, i32 0, i32 15
  %14 = getelementptr inbounds [2 x ptr], ptr %13, i64 0, i64 1
  %15 = load ptr, ptr %14, align 8, !tbaa !10
  %16 = icmp ne ptr %15, null
  br i1 %16, label %17, label %24

17:                                               ; preds = %11
  %18 = load ptr, ptr %4, align 8, !tbaa !3
  %19 = getelementptr inbounds nuw %struct.Map_NodeStruct_t_, ptr %18, i32 0, i32 7
  %20 = load i32, ptr %5, align 4, !tbaa !8
  %21 = sext i32 %20 to i64
  %22 = getelementptr inbounds [3 x float], ptr %19, i64 0, i64 %21
  %23 = load float, ptr %22, align 4, !tbaa !12
  store float %23, ptr %3, align 4
  br label %29

24:                                               ; preds = %11, %2
  %25 = load ptr, ptr %4, align 8, !tbaa !3
  %26 = getelementptr inbounds nuw %struct.Map_NodeStruct_t_, ptr %25, i32 0, i32 7
  %27 = getelementptr inbounds [3 x float], ptr %26, i64 0, i64 2
  %28 = load float, ptr %27, align 4, !tbaa !12
  store float %28, ptr %3, align 4
  br label %29

29:                                               ; preds = %24, %17
  %30 = load float, ptr %3, align 4
  ret float %30
}

; Function Attrs: nounwind uwtable
define float @Map_CutGetAreaFlow(ptr noundef %0, i32 noundef %1) #0 {
  %3 = alloca ptr, align 8
  %4 = alloca i32, align 4
  %5 = alloca ptr, align 8
  %6 = alloca ptr, align 8
  %7 = alloca i32, align 4
  %8 = alloca ptr, align 8
  %9 = alloca float, align 4
  %10 = alloca float, align 4
  %11 = alloca float, align 4
  %12 = alloca i32, align 4
  %13 = alloca i32, align 4
  store ptr %0, ptr %3, align 8, !tbaa !10
  store i32 %1, ptr %4, align 4, !tbaa !8
  call void @llvm.lifetime.start.p0(i64 8, ptr %5) #4
  %14 = load ptr, ptr %3, align 8, !tbaa !10
  %15 = getelementptr inbounds nuw %struct.Map_CutStruct_t_, ptr %14, i32 0, i32 9
  %16 = getelementptr inbounds [2 x %struct.Map_MatchStruct_t_], ptr %15, i64 0, i64 0
  %17 = load i32, ptr %4, align 4, !tbaa !8
  %18 = sext i32 %17 to i64
  %19 = getelementptr inbounds %struct.Map_MatchStruct_t_, ptr %16, i64 %18
  store ptr %19, ptr %5, align 8, !tbaa !37
  call void @llvm.lifetime.start.p0(i64 8, ptr %6) #4
  %20 = load ptr, ptr %5, align 8, !tbaa !37
  %21 = getelementptr inbounds nuw %struct.Map_MatchStruct_t_, ptr %20, i32 0, i32 3
  %22 = load ptr, ptr %21, align 8, !tbaa !39
  store ptr %22, ptr %6, align 8, !tbaa !43
  call void @llvm.lifetime.start.p0(i64 4, ptr %7) #4
  %23 = load ptr, ptr %5, align 8, !tbaa !37
  %24 = getelementptr inbounds nuw %struct.Map_MatchStruct_t_, ptr %23, i32 0, i32 2
  %25 = load i32, ptr %24, align 4, !tbaa !44
  store i32 %25, ptr %7, align 4, !tbaa !8
  call void @llvm.lifetime.start.p0(i64 8, ptr %8) #4
  call void @llvm.lifetime.start.p0(i64 4, ptr %9) #4
  call void @llvm.lifetime.start.p0(i64 4, ptr %10) #4
  call void @llvm.lifetime.start.p0(i64 4, ptr %11) #4
  call void @llvm.lifetime.start.p0(i64 4, ptr %12) #4
  call void @llvm.lifetime.start.p0(i64 4, ptr %13) #4
  %26 = load ptr, ptr %6, align 8, !tbaa !43
  %27 = getelementptr inbounds nuw %struct.Map_SuperStruct_t_, ptr %26, i32 0, i32 10
  %28 = load float, ptr %27, align 4, !tbaa !45
  store float %28, ptr %9, align 4, !tbaa !12
  store i32 0, ptr %12, align 4, !tbaa !8
  br label %29

29:                                               ; preds = %97, %2
  %30 = load i32, ptr %12, align 4, !tbaa !8
  %31 = load ptr, ptr %3, align 8, !tbaa !10
  %32 = getelementptr inbounds nuw %struct.Map_CutStruct_t_, ptr %31, i32 0, i32 5
  %33 = load i8, ptr %32, align 4, !tbaa !48
  %34 = sext i8 %33 to i32
  %35 = icmp slt i32 %30, %34
  br i1 %35, label %36, label %100

36:                                               ; preds = %29
  %37 = load i32, ptr %7, align 4, !tbaa !8
  %38 = load i32, ptr %12, align 4, !tbaa !8
  %39 = shl i32 1, %38
  %40 = and i32 %37, %39
  %41 = icmp eq i32 %40, 0
  %42 = zext i1 %41 to i32
  store i32 %42, ptr %13, align 4, !tbaa !8
  %43 = load ptr, ptr %3, align 8, !tbaa !10
  %44 = getelementptr inbounds nuw %struct.Map_CutStruct_t_, ptr %43, i32 0, i32 3
  %45 = load i32, ptr %12, align 4, !tbaa !8
  %46 = sext i32 %45 to i64
  %47 = getelementptr inbounds [6 x ptr], ptr %44, i64 0, i64 %46
  %48 = load ptr, ptr %47, align 8, !tbaa !3
  %49 = getelementptr inbounds nuw %struct.Map_NodeStruct_t_, ptr %48, i32 0, i32 15
  %50 = load i32, ptr %13, align 4, !tbaa !8
  %51 = sext i32 %50 to i64
  %52 = getelementptr inbounds [2 x ptr], ptr %49, i64 0, i64 %51
  %53 = load ptr, ptr %52, align 8, !tbaa !10
  store ptr %53, ptr %8, align 8, !tbaa !10
  %54 = load ptr, ptr %8, align 8, !tbaa !10
  %55 = icmp eq ptr %54, null
  br i1 %55, label %56, label %72

56:                                               ; preds = %36
  %57 = load i32, ptr %13, align 4, !tbaa !8
  %58 = icmp ne i32 %57, 0
  %59 = xor i1 %58, true
  %60 = zext i1 %59 to i32
  store i32 %60, ptr %13, align 4, !tbaa !8
  %61 = load ptr, ptr %3, align 8, !tbaa !10
  %62 = getelementptr inbounds nuw %struct.Map_CutStruct_t_, ptr %61, i32 0, i32 3
  %63 = load i32, ptr %12, align 4, !tbaa !8
  %64 = sext i32 %63 to i64
  %65 = getelementptr inbounds [6 x ptr], ptr %62, i64 0, i64 %64
  %66 = load ptr, ptr %65, align 8, !tbaa !3
  %67 = getelementptr inbounds nuw %struct.Map_NodeStruct_t_, ptr %66, i32 0, i32 15
  %68 = load i32, ptr %13, align 4, !tbaa !8
  %69 = sext i32 %68 to i64
  %70 = getelementptr inbounds [2 x ptr], ptr %67, i64 0, i64 %69
  %71 = load ptr, ptr %70, align 8, !tbaa !10
  store ptr %71, ptr %8, align 8, !tbaa !10
  br label %72

72:                                               ; preds = %56, %36
  %73 = load ptr, ptr %8, align 8, !tbaa !10
  %74 = getelementptr inbounds nuw %struct.Map_CutStruct_t_, ptr %73, i32 0, i32 9
  %75 = load i32, ptr %13, align 4, !tbaa !8
  %76 = sext i32 %75 to i64
  %77 = getelementptr inbounds [2 x %struct.Map_MatchStruct_t_], ptr %74, i64 0, i64 %76
  %78 = getelementptr inbounds nuw %struct.Map_MatchStruct_t_, ptr %77, i32 0, i32 5
  %79 = load float, ptr %78, align 4, !tbaa !50
  store float %79, ptr %10, align 4, !tbaa !12
  %80 = load ptr, ptr %3, align 8, !tbaa !10
  %81 = getelementptr inbounds nuw %struct.Map_CutStruct_t_, ptr %80, i32 0, i32 3
  %82 = load i32, ptr %12, align 4, !tbaa !8
  %83 = sext i32 %82 to i64
  %84 = getelementptr inbounds [6 x ptr], ptr %81, i64 0, i64 %83
  %85 = load ptr, ptr %84, align 8, !tbaa !3
  %86 = load i32, ptr %13, align 4, !tbaa !8
  %87 = call float @Map_NodeReadRefPhaseEst(ptr noundef %85, i32 noundef %86)
  store float %87, ptr %11, align 4, !tbaa !12
  %88 = load float, ptr %11, align 4, !tbaa !12
  %89 = fcmp oeq float %88, 0.000000e+00
  br i1 %89, label %90, label %91

90:                                               ; preds = %72
  store float 1.000000e+00, ptr %11, align 4, !tbaa !12
  br label %91

91:                                               ; preds = %90, %72
  %92 = load float, ptr %10, align 4, !tbaa !12
  %93 = load float, ptr %11, align 4, !tbaa !12
  %94 = fdiv float %92, %93
  %95 = load float, ptr %9, align 4, !tbaa !12
  %96 = fadd float %95, %94
  store float %96, ptr %9, align 4, !tbaa !12
  br label %97

97:                                               ; preds = %91
  %98 = load i32, ptr %12, align 4, !tbaa !8
  %99 = add nsw i32 %98, 1
  store i32 %99, ptr %12, align 4, !tbaa !8
  br label %29, !llvm.loop !51

100:                                              ; preds = %29
  %101 = load float, ptr %9, align 4, !tbaa !12
  %102 = load ptr, ptr %5, align 8, !tbaa !37
  %103 = getelementptr inbounds nuw %struct.Map_MatchStruct_t_, ptr %102, i32 0, i32 5
  store float %101, ptr %103, align 4, !tbaa !50
  %104 = load float, ptr %9, align 4, !tbaa !12
  call void @llvm.lifetime.end.p0(i64 4, ptr %13) #4
  call void @llvm.lifetime.end.p0(i64 4, ptr %12) #4
  call void @llvm.lifetime.end.p0(i64 4, ptr %11) #4
  call void @llvm.lifetime.end.p0(i64 4, ptr %10) #4
  call void @llvm.lifetime.end.p0(i64 4, ptr %9) #4
  call void @llvm.lifetime.end.p0(i64 8, ptr %8) #4
  call void @llvm.lifetime.end.p0(i64 4, ptr %7) #4
  call void @llvm.lifetime.end.p0(i64 8, ptr %6) #4
  call void @llvm.lifetime.end.p0(i64 8, ptr %5) #4
  ret float %104
}