; Function Attrs: nofree norecurse nosync nounwind memory(read, argmem: readwrite, inaccessiblemem: none) uwtable
define float @Map_CutGetAreaFlow(ptr noundef captures(none) %0, i32 noundef %1) local_unnamed_addr #4 {
  %3 = getelementptr inbounds nuw i8, ptr %0, i64 80
  %4 = sext i32 %1 to i64
  %5 = getelementptr inbounds %struct.Map_MatchStruct_t_, ptr %3, i64 %4
  %6 = getelementptr inbounds nuw i8, ptr %5, i64 16
  %7 = load ptr, ptr %6, align 8, !tbaa !36
  %8 = getelementptr inbounds nuw i8, ptr %5, i64 12
  %9 = load i32, ptr %8, align 4, !tbaa !40
  %10 = getelementptr inbounds nuw i8, ptr %7, i64 236
  %11 = load float, ptr %10, align 4, !tbaa !41
  %12 = getelementptr inbounds nuw i8, ptr %0, i64 76
  %13 = load i8, ptr %12, align 4, !tbaa !44
  %14 = icmp sgt i8 %13, 0
  br i1 %14, label %.lr.ph, label %._crit_edge

.lr.ph:                                           ; preds = %2
  %wide.trip.count = zext nneg i8 %13 to i64
  %15 = getelementptr inbounds nuw i8, ptr %0, i64 24
  br label %16

16:                                               ; preds = %.lr.ph, %Map_NodeReadRefPhaseEst.exit
  %indvars.iv = phi i64 [ 0, %.lr.ph ], [ %indvars.iv.next, %Map_NodeReadRefPhaseEst.exit ]
  %.03235 = phi float [ %11, %.lr.ph ], [ %49, %Map_NodeReadRefPhaseEst.exit ]
  %17 = trunc nuw nsw i64 %indvars.iv to i32
  %18 = shl nuw i32 1, %17
  %19 = and i32 %18, %9
  %20 = icmp eq i32 %19, 0
  %21 = getelementptr inbounds nuw [6 x ptr], ptr %15, i64 0, i64 %indvars.iv
  %22 = load ptr, ptr %21, align 8, !tbaa !29
  %23 = getelementptr inbounds nuw i8, ptr %22, i64 144
  %24 = zext i1 %20 to i64
  %25 = getelementptr inbounds nuw [2 x ptr], ptr %23, i64 0, i64 %24
  %26 = load ptr, ptr %25, align 8, !tbaa !3
  %27 = icmp eq ptr %26, null
  br i1 %27, label %28, label %33

28:                                               ; preds = %16
  %29 = xor i1 %20, true
  %30 = zext i1 %29 to i64
  %31 = getelementptr inbounds nuw [2 x ptr], ptr %23, i64 0, i64 %30
  %32 = load ptr, ptr %31, align 8, !tbaa !3
  br label %33

33:                                               ; preds = %28, %16
  %.031 = phi ptr [ %32, %28 ], [ %26, %16 ]
  %.0.in = phi i1 [ %29, %28 ], [ %20, %16 ]
  %34 = getelementptr inbounds nuw i8, ptr %.031, i64 80
  %.offs = select i1 %.0.in, i64 76, i64 36
  %35 = getelementptr inbounds nuw i8, ptr %34, i64 %.offs
  %36 = load float, ptr %35, align 4, !tbaa !46
  %37 = load ptr, ptr %23, align 8, !tbaa !3
  %.not.i = icmp eq ptr %37, null
  br i1 %.not.i, label %45, label %38

38:                                               ; preds = %33
  %39 = getelementptr inbounds nuw i8, ptr %22, i64 152
  %40 = load ptr, ptr %39, align 8, !tbaa !3
  %.not5.i = icmp eq ptr %40, null
  br i1 %.not5.i, label %45, label %41

41:                                               ; preds = %38
  %42 = getelementptr inbounds nuw i8, ptr %22, i64 44
  %43 = zext i1 %.0.in to i64
  %44 = getelementptr inbounds nuw [3 x float], ptr %42, i64 0, i64 %43
  br label %Map_NodeReadRefPhaseEst.exit

45:                                               ; preds = %38, %33
  %46 = getelementptr inbounds nuw i8, ptr %22, i64 52
  br label %Map_NodeReadRefPhaseEst.exit

Map_NodeReadRefPhaseEst.exit:                     ; preds = %41, %45
  %.0.in.i = phi ptr [ %44, %41 ], [ %46, %45 ]
  %.0.i = load float, ptr %.0.in.i, align 4, !tbaa !10
  %47 = fcmp oeq float %.0.i, 0.000000e+00
  %.030 = select i1 %47, float 1.000000e+00, float %.0.i
  %48 = fdiv float %36, %.030
  %49 = fadd float %.03235, %48
  %indvars.iv.next = add nuw nsw i64 %indvars.iv, 1
  %exitcond.not = icmp eq i64 %indvars.iv.next, %wide.trip.count
  br i1 %exitcond.not, label %._crit_edge, label %16, !llvm.loop !47

._crit_edge:                                      ; preds = %Map_NodeReadRefPhaseEst.exit, %2
  %.032.lcssa = phi float [ %11, %2 ], [ %49, %Map_NodeReadRefPhaseEst.exit ]
  %50 = getelementptr inbounds nuw i8, ptr %5, i64 36
  store float %.032.lcssa, ptr %50, align 4, !tbaa !46
  ret float %.032.lcssa
}